(dp0
S'I3D_PLATFORM_IPHONE'
p1
NsS'I3D_OS_IPHONE'
p2
NsS'IW_SDK'
p3
NsS'IW_MKF_S3EGPUIMAGE_BUILD'
p4
NsS'IW_USE_ASSERTIONS'
p5
NsS'IW_PLATFORM_IPHONE'
p6
NsS'__IPHONE_OS_VERSION_MIN_REQUIRED'
p7
S'2000'
p8
sS'S3E_BUILD_EXT'
p9
NsS'I3D_ARCH_X86'
p10
NsS'IW_TRACE_CHANNEL_GPUIMAGE_VERBOSE'
p11
S'2'
p12
sS'IW_TRACE_CHANNEL_GPUIMAGE'
p13
S'1'
p14
sS'IW_ASSERTION_CHANNEL_GPUIMAGE'
p15
g14
sS'IW_MKF_EDK'
p16
NsS'IW_DEBUG'
p17
NsS'IW_USE_TRACING'
p18
NsS'S3E_EXT_GPUIMAGE'
p19
Ns.