(dp0
S'I3D_PLATFORM_IPHONE'
p1
NsS'I3D_OS_IPHONE'
p2
NsS'IW_SDK'
p3
NsS'IW_MKF_S3EGPUIMAGE_BUILD'
p4
NsS'IW_USE_ASSERTIONS'
p5
NsS'IW_PLATFORM_IPHONE'
p6
NsS'S3E_BUILD_EXT'
p7
NsS'IW_ASSERTION_CHANNEL_GPUIMAGE'
p8
S'1'
p9
sS'IW_TRACE_CHANNEL_GPUIMAGE_VERBOSE'
p10
S'2'
p11
sS'IW_TRACE_CHANNEL_GPUIMAGE'
p12
g9
sS'IW_MKF_EDK'
p13
NsS'IW_DEBUG'
p14
NsS'IW_USE_TRACING'
p15
NsS'S3E_EXT_GPUIMAGE'
p16
Ns.